ccopy_reg
_reconstructor
p1
(cchared.detector
EncodingDetector
p2
c__builtin__
object
p3
NtRp4
(dp5
S'_vectors'
p6
(dp7
S'utf_8'
p8
(dp9
ssS'_version'
p10
S'1.0'
p11
sS'_encodings_order'
p12
(g8
tp13
sb.